(lp0
(I0
I85
tp1
a(I1
I18
tp2
a(I87
I65
tp3
a(I30
I22
tp4
a(I26
I13
tp5
a(I22
I95
tp6
a(I14
I10
tp7
a(I93
I2
tp8
a(I84
I73
tp9
a(I89
I34
tp10
a(I77
I1
tp11
a(I38
I88
tp12
a(I17
I12
tp13
a(I41
I60
tp14
a(I14
I74
tp15
a(I24
I91
tp16
a(I27
I90
tp17
a(I56
I22
tp18
a(I69
I3
tp19
a(I33
I67
tp20
a(I35
I1
tp21
a(I40
I18
tp22
a(I79
I74
tp23
a(I32
I98
tp24
a(I28
I88
tp25
a(I83
I41
tp26
a(I98
I10
tp27
a(I90
I26
tp28
a(I78
I86
tp29
a(I1
I53
tp30
a(I60
I66
tp31
a(I71
I94
tp32
a(I19
I11
tp33
a(I14
I17
tp34
a(I0
I74
tp35
a(I19
I11
tp36
a(I12
I81
tp37
a(I5
I70
tp38
a(I6
I6
tp39
a(I74
I43
tp40
a(I97
I60
tp41
a(I21
I92
tp42
a(I44
I37
tp43
a(I60
I29
tp44
a(I51
I68
tp45
a(I90
I99
tp46
a(I74
I65
tp47
a(I85
I31
tp48
a(I83
I45
tp49
a(I11
I73
tp50
a(I62
I91
tp51
a(I10
I4
tp52
a(I19
I22
tp53
a(I45
I90
tp54
a(I35
I48
tp55
a(I46
I61
tp56
a(I20
I49
tp57
a(I44
I28
tp58
a(I89
I100
tp59
a(I99
I35
tp60
a(I99
I31
tp61
a(I89
I11
tp62
a(I14
I93
tp63
a(I50
I50
tp64
a(I56
I74
tp65
a(I86
I2
tp66
a(I40
I76
tp67
a(I69
I6
tp68
a(I66
I24
tp69
a(I4
I42
tp70
a(I17
I40
tp71
a(I20
I46
tp72
a(I65
I13
tp73
a(I45
I80
tp74
a(I6
I58
tp75
a(I68
I24
tp76
a(I14
I20
tp77
a(I64
I45
tp78
a(I93
I69
tp79
a(I22
I23
tp80
a(I33
I35
tp81
a(I98
I67
tp82
a(I4
I95
tp83
a(I19
I98
tp84
a(I26
I62
tp85
a(I56
I90
tp86
a(I76
I55
tp87
a(I76
I31
tp88
a(I82
I83
tp89
a(I9
I45
tp90
a(I13
I43
tp91
a(I11
I37
tp92
a(I83
I66
tp93
a(I82
I18
tp94
a(I67
I44
tp95
a(I51
I31
tp96
a(I61
I5
tp97
a(I69
I24
tp98
a(I34
I88
tp99
a(I14
I21
tp100
a(I27
I40
tp101
a(I66
I33
tp102
a(I80
I88
tp103
a(I98
I46
tp104
a(I22
I65
tp105
a(I86
I43
tp106
a(I67
I9
tp107
a(I50
I80
tp108
a(I79
I6
tp109
a(I70
I92
tp110
a(I55
I81
tp111
a(I78
I65
tp112
a(I81
I11
tp113
a(I59
I22
tp114
a(I47
I91
tp115
a(I54
I47
tp116
a(I2
I38
tp117
a(I51
I78
tp118
a(I21
I2
tp119
a(I53
I51
tp120
a(I61
I48
tp121
a(I27
I91
tp122
a(I96
I63
tp123
a(I73
I64
tp124
a(I71
I46
tp125
a(I32
I29
tp126
a(I9
I18
tp127
a(I9
I88
tp128
a(I44
I93
tp129
a(I89
I39
tp130
a(I68
I77
tp131
a(I37
I14
tp132
a(I60
I15
tp133
a(I71
I15
tp134
a(I16
I25
tp135
a(I32
I83
tp136
a(I30
I30
tp137
a(I50
I22
tp138
a(I83
I10
tp139
a(I16
I79
tp140
a(I39
I82
tp141
a(I95
I37
tp142
a(I89
I2
tp143
a(I16
I80
tp144
a(I45
I47
tp145
a(I64
I62
tp146
a(I54
I60
tp147
a(I21
I16
tp148
a(I1
I88
tp149
a(I75
I59
tp150
a(I56
I14
tp151
a(I29
I84
tp152
a(I15
I69
tp153
a(I67
I92
tp154
a(I85
I91
tp155
a(I68
I14
tp156
a(I56
I65
tp157
a(I99
I17
tp158
a(I50
I71
tp159
a(I49
I72
tp160
a(I15
I63
tp161
a(I12
I33
tp162
a(I55
I54
tp163
a(I18
I28
tp164
a(I21
I86
tp165
a(I55
I23
tp166
a(I81
I92
tp167
a(I100
I55
tp168
a(I25
I50
tp169
a(I92
I0
tp170
a(I25
I57
tp171
a(I86
I60
tp172
a(I61
I65
tp173
a(I11
I97
tp174
a(I94
I70
tp175
a(I83
I43
tp176
a(I95
I33
tp177
a(I85
I57
tp178
a(I58
I47
tp179
a(I56
I42
tp180
a(I7
I78
tp181
a(I56
I45
tp182
a(I8
I19
tp183
a(I32
I6
tp184
a(I68
I69
tp185
a(I94
I99
tp186
a(I100
I7
tp187
a(I98
I13
tp188
a(I1
I63
tp189
a(I11
I0
tp190
a(I24
I3
tp191
a(I23
I6
tp192
a(I63
I19
tp193
a(I40
I45
tp194
a(I87
I9
tp195
a(I47
I7
tp196
a(I22
I22
tp197
a(I8
I58
tp198
a(I42
I61
tp199
a(I52
I49
tp200
a(I23
I1
tp201
a(I24
I40
tp202
a(I72
I21
tp203
a(I24
I41
tp204
a(I78
I28
tp205
a(I28
I62
tp206
a(I41
I90
tp207
a(I81
I11
tp208
a(I79
I87
tp209
a(I20
I16
tp210
a(I50
I53
tp211
a(I92
I47
tp212
a(I53
I86
tp213
a(I79
I94
tp214
a(I92
I7
tp215
a(I75
I1
tp216
a(I55
I40
tp217
a(I30
I98
tp218
a(I73
I53
tp219
a(I91
I32
tp220
a(I70
I17
tp221
a(I38
I46
tp222
a(I58
I89
tp223
a(I65
I68
tp224
a(I18
I58
tp225
a(I89
I30
tp226
a(I56
I22
tp227
a(I15
I37
tp228
a(I9
I9
tp229
a(I91
I43
tp230
a(I30
I92
tp231
a(I11
I5
tp232
a(I91
I60
tp233
a(I78
I25
tp234
a(I68
I84
tp235
a(I81
I73
tp236
a(I24
I41
tp237
a(I57
I9
tp238
a(I50
I13
tp239
a(I84
I12
tp240
a(I46
I24
tp241
a(I53
I55
tp242
a(I73
I32
tp243
a(I36
I50
tp244
a(I93
I86
tp245
a(I55
I47
tp246
a(I53
I60
tp247
a(I72
I1
tp248
a(I90
I22
tp249
a(I55
I59
tp250
a(I89
I3
tp251
a(I71
I61
tp252
a(I1
I87
tp253
a(I12
I83
tp254
a(I35
I50
tp255
a(I48
I72
tp256
a.